target datalayout = "e-m:e-p270:32:32-p271:32:32-p272:64:64-i64:64-i128:128-f80:128-n8:16:32:64-S128"
target triple = "x86_64-pc-linux-gnu"

@.str.60 = private unnamed_addr constant [5 x i8] c" \0A\09\0D\00", align 1
@.str.61 = private unnamed_addr constant [2 x i8] c";\00", align 1
@.str.62 = private unnamed_addr constant [2 x i8] c"=\00", align 1

; Function Attrs: nounwind uwtable
define internal i32 @parse_set_cookie(ptr noundef %0, ptr noundef %1) #0 {
  %3 = alloca i32, align 4
  %4 = alloca ptr, align 8
  %5 = alloca ptr, align 8
  %6 = alloca ptr, align 8
  %7 = alloca ptr, align 8
  %8 = alloca ptr, align 8
  %9 = alloca ptr, align 8
  %10 = alloca ptr, align 8
  %11 = alloca i32, align 4
  %12 = alloca ptr, align 8
  %13 = alloca ptr, align 8
  store ptr %0, ptr %4, align 8, !tbaa !17
  store ptr %1, ptr %5, align 8, !tbaa !18
  call void @llvm.lifetime.start.p0(i64 8, ptr %6) #11
  call void @llvm.lifetime.start.p0(i64 8, ptr %7) #11
  call void @llvm.lifetime.start.p0(i64 8, ptr %8) #11
  call void @llvm.lifetime.start.p0(i64 8, ptr %9) #11
  call void @llvm.lifetime.start.p0(i64 8, ptr %10) #11
  store ptr null, ptr %10, align 8, !tbaa !17
  %14 = load ptr, ptr %4, align 8, !tbaa !17
  %15 = getelementptr inbounds i8, ptr %14, i64 0
  %16 = load i8, ptr %15, align 1, !tbaa !64
  %17 = icmp ne i8 %16, 0
  br i1 %17, label %19, label %18

18:                                               ; preds = %2
  store i32 0, ptr %3, align 4
  store i32 1, ptr %11, align 4
  br label %74

19:                                               ; preds = %2
  %20 = load ptr, ptr %4, align 8, !tbaa !17
  %21 = call noalias ptr @av_strdup(ptr noundef %20)
  store ptr %21, ptr %8, align 8, !tbaa !17
  %22 = icmp ne ptr %21, null
  br i1 %22, label %24, label %23

23:                                               ; preds = %19
  store i32 -22, ptr %3, align 4
  store i32 1, ptr %11, align 4
  br label %74

24:                                               ; preds = %19
  %25 = load ptr, ptr %8, align 8, !tbaa !17
  %26 = load ptr, ptr %8, align 8, !tbaa !17
  %27 = call i64 @strlen(ptr noundef %26) #12
  %28 = sub i64 %27, 1
  %29 = getelementptr inbounds nuw i8, ptr %25, i64 %28
  store ptr %29, ptr %9, align 8, !tbaa !17
  br label %30

30:                                               ; preds = %42, %24
  %31 = load ptr, ptr %9, align 8, !tbaa !17
  %32 = load i8, ptr %31, align 1, !tbaa !64
  %33 = sext i8 %32 to i32
  %34 = call ptr @strchr(ptr noundef @.str.60, i32 noundef %33) #12
  %35 = icmp ne ptr %34, null
  br i1 %35, label %36, label %45

36:                                               ; preds = %30
  %37 = load ptr, ptr %9, align 8, !tbaa !17
  store i8 0, ptr %37, align 1, !tbaa !64
  %38 = load ptr, ptr %9, align 8, !tbaa !17
  %39 = load ptr, ptr %8, align 8, !tbaa !17
  %40 = icmp eq ptr %38, %39
  br i1 %40, label %41, label %42

41:                                               ; preds = %36
  br label %45

42:                                               ; preds = %36
  %43 = load ptr, ptr %9, align 8, !tbaa !17
  %44 = getelementptr inbounds i8, ptr %43, i32 -1
  store ptr %44, ptr %9, align 8, !tbaa !17
  br label %30, !llvm.loop !117

45:                                               ; preds = %41, %30
  %46 = load ptr, ptr %8, align 8, !tbaa !17
  store ptr %46, ptr %7, align 8, !tbaa !17
  br label %47

47:                                               ; preds = %71, %45
  %48 = load ptr, ptr %7, align 8, !tbaa !17
  %49 = call ptr @av_strtok(ptr noundef %48, ptr noundef @.str.61, ptr noundef %10)
  store ptr %49, ptr %6, align 8, !tbaa !17
  %50 = icmp ne ptr %49, null
  br i1 %50, label %51, label %72

51:                                               ; preds = %47
  call void @llvm.lifetime.start.p0(i64 8, ptr %12) #11
  call void @llvm.lifetime.start.p0(i64 8, ptr %13) #11
  store ptr null, ptr %7, align 8, !tbaa !17
  %52 = load ptr, ptr %6, align 8, !tbaa !17
  %53 = call i64 @strspn(ptr noundef %52, ptr noundef @.str.60) #12
  %54 = load ptr, ptr %6, align 8, !tbaa !17
  %55 = getelementptr inbounds nuw i8, ptr %54, i64 %53
  store ptr %55, ptr %6, align 8, !tbaa !17
  %56 = load ptr, ptr %6, align 8, !tbaa !17
  %57 = call ptr @av_strtok(ptr noundef %56, ptr noundef @.str.62, ptr noundef %13)
  store ptr %57, ptr %12, align 8, !tbaa !17
  %58 = icmp ne ptr %57, null
  br i1 %58, label %59, label %68

59:                                               ; preds = %51
  %60 = load ptr, ptr %5, align 8, !tbaa !18
  %61 = load ptr, ptr %12, align 8, !tbaa !17
  %62 = load ptr, ptr %13, align 8, !tbaa !17
  %63 = call i32 @av_dict_set(ptr noundef %60, ptr noundef %61, ptr noundef %62, i32 noundef 0)
  %64 = icmp slt i32 %63, 0
  br i1 %64, label %65, label %67

65:                                               ; preds = %59
  %66 = load ptr, ptr %8, align 8, !tbaa !17
  call void @av_free(ptr noundef %66)
  store i32 -1, ptr %3, align 4
  store i32 1, ptr %11, align 4
  br label %69

67:                                               ; preds = %59
  br label %68

68:                                               ; preds = %67, %51
  store i32 0, ptr %11, align 4
  br label %69

69:                                               ; preds = %68, %65
  call void @llvm.lifetime.end.p0(i64 8, ptr %13) #11
  call void @llvm.lifetime.end.p0(i64 8, ptr %12) #11
  %70 = load i32, ptr %11, align 4
  switch i32 %70, label %74 [
    i32 0, label %71
  ]

71:                                               ; preds = %69
  br label %47, !llvm.loop !118

72:                                               ; preds = %47
  %73 = load ptr, ptr %8, align 8, !tbaa !17
  call void @av_free(ptr noundef %73)
  store i32 0, ptr %3, align 4
  store i32 1, ptr %11, align 4
  br label %74

74:                                               ; preds = %72, %69, %23, %18
  call void @llvm.lifetime.end.p0(i64 8, ptr %10) #11
  call void @llvm.lifetime.end.p0(i64 8, ptr %9) #11
  call void @llvm.lifetime.end.p0(i64 8, ptr %8) #11
  call void @llvm.lifetime.end.p0(i64 8, ptr %7) #11
  call void @llvm.lifetime.end.p0(i64 8, ptr %6) #11
  %75 = load i32, ptr %3, align 4
  ret i32 %75
}