; Function Attrs: nounwind uwtable
define internal fastcc range(i32 -22, 1) i32 @parse_set_cookie(ptr noundef %0, ptr noundef nonnull %1) unnamed_addr #2 {
  %3 = alloca ptr, align 8
  %4 = alloca ptr, align 8
  call void @llvm.lifetime.start.p0(i64 8, ptr nonnull %3) #15
  store ptr null, ptr %3, align 8, !tbaa !49
  %5 = load i8, ptr %0, align 1, !tbaa !44
  %.not = icmp eq i8 %5, 0
  br i1 %.not, label %30, label %6

6:                                                ; preds = %2
  %7 = tail call noalias ptr @av_strdup(ptr noundef nonnull %0) #15
  %.not25 = icmp eq ptr %7, null
  br i1 %.not25, label %30, label %8

8:                                                ; preds = %6
  %9 = tail call i64 @strlen(ptr noundef nonnull dereferenceable(1) %7) #16
  %10 = getelementptr i8, ptr %7, i64 %9
  br label %11

11:                                               ; preds = %16, %8
  %.pn = phi ptr [ %10, %8 ], [ %.020, %16 ]
  %.020 = getelementptr i8, ptr %.pn, i64 -1
  %12 = load i8, ptr %.020, align 1, !tbaa !44
  %13 = zext nneg i8 %12 to i64
  %memchr.bounds = icmp ugt i8 %12, 63
  %14 = shl nuw i64 1, %13
  %15 = and i64 %14, 4294977025
  %memchr.bits = icmp eq i64 %15, 0
  %memchr26.not = select i1 %memchr.bounds, i1 true, i1 %memchr.bits
  br i1 %memchr26.not, label %18, label %16

16:                                               ; preds = %11
  store i8 0, ptr %.020, align 1, !tbaa !44
  %17 = icmp eq ptr %.020, %7
  br i1 %17, label %18, label %11, !llvm.loop !123

18:                                               ; preds = %16, %11
  %19 = call ptr @av_strtok(ptr noundef nonnull %7, ptr noundef nonnull @.str.61, ptr noundef nonnull %3) #15
  %.not2830 = icmp eq ptr %19, null
  br i1 %.not2830, label %._crit_edge, label %.lr.ph

.lr.ph:                                           ; preds = %18, %28
  %20 = phi ptr [ %29, %28 ], [ %19, %18 ]
  call void @llvm.lifetime.start.p0(i64 8, ptr nonnull %4) #15
  %21 = call i64 @strspn(ptr noundef nonnull %20, ptr noundef nonnull @.str.60) #16
  %22 = getelementptr inbounds nuw i8, ptr %20, i64 %21
  %23 = call ptr @av_strtok(ptr noundef nonnull %22, ptr noundef nonnull @.str.62, ptr noundef nonnull %4) #15
  %.not29 = icmp eq ptr %23, null
  br i1 %.not29, label %28, label %24

24:                                               ; preds = %.lr.ph
  %25 = load ptr, ptr %4, align 8, !tbaa !49
  %26 = call i32 @av_dict_set(ptr noundef nonnull %1, ptr noundef nonnull %23, ptr noundef %25, i32 noundef 0) #15
  %27 = icmp slt i32 %26, 0
  br i1 %27, label %.critedge, label %28

.critedge:                                        ; preds = %24
  call void @av_free(ptr noundef nonnull %7) #15
  call void @llvm.lifetime.end.p0(i64 8, ptr nonnull %4) #15
  br label %30

28:                                               ; preds = %.lr.ph, %24
  call void @llvm.lifetime.end.p0(i64 8, ptr nonnull %4) #15
  %29 = call ptr @av_strtok(ptr noundef null, ptr noundef nonnull @.str.61, ptr noundef nonnull %3) #15
  %.not28 = icmp eq ptr %29, null
  br i1 %.not28, label %._crit_edge, label %.lr.ph, !llvm.loop !124

._crit_edge:                                      ; preds = %28, %18
  call void @av_free(ptr noundef nonnull %7) #15
  br label %30

30:                                               ; preds = %.critedge, %6, %2, %._crit_edge
  %.0 = phi i32 [ 0, %._crit_edge ], [ 0, %2 ], [ -22, %6 ], [ -1, %.critedge ]
  call void @llvm.lifetime.end.p0(i64 8, ptr nonnull %3) #15
  ret i32 %.0
}